target datalayout = "e-m:e-p270:32:32-p271:32:32-p272:64:64-i64:64-i128:128-f80:128-n8:16:32:64-S128"
target triple = "x86_64-pc-linux-gnu"

%struct.png_struct_def = type { [1 x %struct.__jmp_buf_tag], ptr, ptr, i64, ptr, ptr, ptr, ptr, ptr, ptr, ptr, ptr, ptr, i8, i8, i32, i32, i32, i32, %struct.z_stream_s, ptr, i32, i32, i32, i32, i32, i32, i32, i32, i32, i32, i32, i32, i32, i32, i32, i32, i32, i32, i32, i32, i32, i64, i32, i32, i32, ptr, ptr, ptr, ptr, i64, i32, i32, ptr, i16, i32, i16, i8, i8, i8, i8, i8, i8, i8, i8, i8, i8, i8, i8, i8, i8, i8, i16, i8, i32, %struct.png_color_16_struct, %struct.png_color_16_struct, ptr, i32, i32, %struct.png_xy, i32, i32, i32, i32, i32, ptr, ptr, ptr, ptr, ptr, ptr, %struct.png_color_8_struct, %struct.png_color_8_struct, ptr, %struct.png_color_16_struct, ptr, ptr, ptr, ptr, ptr, ptr, ptr, ptr, ptr, i32, i32, i64, i64, i64, i64, i32, i32, ptr, ptr, i32, [29 x i8], i32, ptr, ptr, i32, i32, ptr, i8, i8, i16, i16, ptr, i32, i8, ptr, ptr, ptr, ptr, ptr, ptr, ptr, i8, i32, i32, i32, i64, %struct.png_unknown_chunk_t, i64, ptr, i64, i32, i32, ptr, [4 x ptr] }
%struct.__jmp_buf_tag = type { [8 x i64], i32, %struct.__sigset_t }
%struct.__sigset_t = type { [16 x i64] }
%struct.z_stream_s = type { ptr, i32, i64, ptr, i32, i64, ptr, ptr, ptr, ptr, ptr, i32, i64, i64 }
%struct.png_xy = type { i32, i32, i32, i32, i32, i32, i32, i32 }
%struct.png_color_8_struct = type { i8, i8, i8, i8, i8 }
%struct.png_color_16_struct = type { i8, i16, i16, i16, i16 }
%struct.png_unknown_chunk_t = type { [5 x i8], ptr, i64, i8 }

; Function Attrs: nounwind uwtable
define i32 @png_crc_finish(ptr noalias noundef %0, i32 noundef %1) #0 {
  %3 = alloca ptr, align 8
  %4 = alloca i32, align 4
  store ptr %0, ptr %3, align 8, !tbaa !3
  store i32 %1, ptr %4, align 4, !tbaa !11
  %5 = load ptr, ptr %3, align 8, !tbaa !3
  %6 = load i32, ptr %4, align 4, !tbaa !11
  %7 = call i32 @png_crc_finish_critical(ptr noundef %5, i32 noundef %6, i32 noundef 0)
  ret i32 %7
}

; Function Attrs: nounwind uwtable
define void @png_read_finish_IDAT(ptr noalias noundef %0) #0 {
  %2 = alloca ptr, align 8
  store ptr %0, ptr %2, align 8, !tbaa !3
  %3 = load ptr, ptr %2, align 8, !tbaa !3
  %4 = getelementptr inbounds nuw %struct.png_struct_def, ptr %3, i32 0, i32 16
  %5 = load i32, ptr %4, align 8, !tbaa !35
  %6 = and i32 %5, 8
  %7 = icmp eq i32 %6, 0
  br i1 %7, label %8, label %28

8:                                                ; preds = %1
  %9 = load ptr, ptr %2, align 8, !tbaa !3
  call void @png_read_IDAT_data(ptr noundef %9, ptr noundef null, i64 noundef 0)
  %10 = load ptr, ptr %2, align 8, !tbaa !3
  %11 = getelementptr inbounds nuw %struct.png_struct_def, ptr %10, i32 0, i32 19
  %12 = getelementptr inbounds nuw %struct.z_stream_s, ptr %11, i32 0, i32 3
  store ptr null, ptr %12, align 8, !tbaa !85
  %13 = load ptr, ptr %2, align 8, !tbaa !3
  %14 = getelementptr inbounds nuw %struct.png_struct_def, ptr %13, i32 0, i32 16
  %15 = load i32, ptr %14, align 8, !tbaa !35
  %16 = and i32 %15, 8
  %17 = icmp eq i32 %16, 0
  br i1 %17, label %18, label %27

18:                                               ; preds = %8
  %19 = load ptr, ptr %2, align 8, !tbaa !3
  %20 = getelementptr inbounds nuw %struct.png_struct_def, ptr %19, i32 0, i32 15
  %21 = load i32, ptr %20, align 4, !tbaa !31
  %22 = or i32 %21, 8
  store i32 %22, ptr %20, align 4, !tbaa !31
  %23 = load ptr, ptr %2, align 8, !tbaa !3
  %24 = getelementptr inbounds nuw %struct.png_struct_def, ptr %23, i32 0, i32 16
  %25 = load i32, ptr %24, align 8, !tbaa !35
  %26 = or i32 %25, 8
  store i32 %26, ptr %24, align 8, !tbaa !35
  br label %27

27:                                               ; preds = %18, %8
  br label %28

28:                                               ; preds = %27, %1
  %29 = load ptr, ptr %2, align 8, !tbaa !3
  %30 = getelementptr inbounds nuw %struct.png_struct_def, ptr %29, i32 0, i32 18
  %31 = load i32, ptr %30, align 8, !tbaa !93
  %32 = icmp eq i32 %31, 1229209940
  br i1 %32, label %33, label %47

33:                                               ; preds = %28
  %34 = load ptr, ptr %2, align 8, !tbaa !3
  %35 = getelementptr inbounds nuw %struct.png_struct_def, ptr %34, i32 0, i32 19
  %36 = getelementptr inbounds nuw %struct.z_stream_s, ptr %35, i32 0, i32 0
  store ptr null, ptr %36, align 8, !tbaa !38
  %37 = load ptr, ptr %2, align 8, !tbaa !3
  %38 = getelementptr inbounds nuw %struct.png_struct_def, ptr %37, i32 0, i32 19
  %39 = getelementptr inbounds nuw %struct.z_stream_s, ptr %38, i32 0, i32 1
  store i32 0, ptr %39, align 8, !tbaa !37
  %40 = load ptr, ptr %2, align 8, !tbaa !3
  %41 = getelementptr inbounds nuw %struct.png_struct_def, ptr %40, i32 0, i32 18
  store i32 0, ptr %41, align 8, !tbaa !93
  %42 = load ptr, ptr %2, align 8, !tbaa !3
  %43 = load ptr, ptr %2, align 8, !tbaa !3
  %44 = getelementptr inbounds nuw %struct.png_struct_def, ptr %43, i32 0, i32 51
  %45 = load i32, ptr %44, align 8, !tbaa !87
  %46 = call i32 @png_crc_finish(ptr noundef %42, i32 noundef %45)
  br label %47

47:                                               ; preds = %33, %28
  ret void
}