; Function Attrs: nounwind uwtable
define void @png_read_finish_IDAT(ptr noalias noundef %0) local_unnamed_addr #0 {
  %2 = getelementptr inbounds nuw i8, ptr %0, i64 304
  %3 = load i32, ptr %2, align 8, !tbaa !31
  %4 = and i32 %3, 8
  %5 = icmp eq i32 %4, 0
  br i1 %5, label %6, label %16

6:                                                ; preds = %1
  tail call void @png_read_IDAT_data(ptr noundef nonnull %0, ptr noundef null, i64 noundef 0)
  %7 = getelementptr inbounds nuw i8, ptr %0, i64 344
  store ptr null, ptr %7, align 8, !tbaa !85
  %8 = load i32, ptr %2, align 8, !tbaa !31
  %9 = and i32 %8, 8
  %10 = icmp eq i32 %9, 0
  br i1 %10, label %11, label %16

11:                                               ; preds = %6
  %12 = getelementptr inbounds nuw i8, ptr %0, i64 300
  %13 = load i32, ptr %12, align 4, !tbaa !24
  %14 = or i32 %13, 8
  store i32 %14, ptr %12, align 4, !tbaa !24
  %15 = or disjoint i32 %8, 8
  store i32 %15, ptr %2, align 8, !tbaa !31
  br label %16

16:                                               ; preds = %6, %11, %1
  %17 = getelementptr inbounds nuw i8, ptr %0, i64 312
  %18 = load i32, ptr %17, align 8, !tbaa !112
  %19 = icmp eq i32 %18, 1229209940
  br i1 %19, label %20, label %26

20:                                               ; preds = %16
  %21 = getelementptr inbounds nuw i8, ptr %0, i64 320
  store ptr null, ptr %21, align 8, !tbaa !40
  %22 = getelementptr inbounds nuw i8, ptr %0, i64 328
  store i32 0, ptr %22, align 8, !tbaa !39
  store i32 0, ptr %17, align 8, !tbaa !112
  %23 = getelementptr inbounds nuw i8, ptr %0, i64 592
  %24 = load i32, ptr %23, align 8, !tbaa !87
  %25 = tail call fastcc range(i32 0, 2) i32 @png_crc_finish_critical(ptr noundef nonnull %0, i32 noundef %24, i32 noundef 0)
  br label %26

26:                                               ; preds = %20, %16
  ret void
}